target datalayout = "e-m:e-p270:32:32-p271:32:32-p272:64:64-i64:64-i128:128-f80:128-n8:16:32:64-S128"
target triple = "x86_64-pc-linux-gnu"

%struct.ScanEnv = type { i32, i32, ptr, ptr, i32, i32, i32, i32, ptr, ptr, ptr, ptr, ptr, ptr, i32, i32, i32, i32, [8 x ptr], ptr, i32, i32, ptr, i32 }
%struct.OnigSyntaxType = type { i32, i32, i32, i32, %struct.OnigMetaCharTableType }
%struct.OnigMetaCharTableType = type { i32, i32, i32, i32, i32, i32 }
%struct._Node = type { %union.anon }
%union.anon = type { %struct.StrNode }
%struct.StrNode = type { %struct.NodeBase, ptr, ptr, i32, i32, [24 x i8] }
%struct.NodeBase = type { i32 }
%struct.ConsAltNode = type { %struct.NodeBase, ptr, ptr }
%struct.AnchorNode = type { %struct.NodeBase, i32, ptr, i32, i32 }

; Function Attrs: alwaysinline nounwind
define internal ptr @memcpy.inline(ptr noalias nonnull %0, ptr noalias nonnull %1, i64 %2) #7 {
  %4 = alloca ptr, align 8
  %5 = alloca ptr, align 8
  %6 = alloca i64, align 8
  store ptr %0, ptr %4, align 8, !tbaa !36
  store ptr %1, ptr %5, align 8, !tbaa !36
  store i64 %2, ptr %6, align 8, !tbaa !14
  %7 = load ptr, ptr %4, align 8, !tbaa !36
  %8 = load ptr, ptr %5, align 8, !tbaa !36
  %9 = load i64, ptr %6, align 8, !tbaa !14
  %10 = load ptr, ptr %4, align 8, !tbaa !36
  %11 = call i64 @llvm.objectsize.i64.p0(ptr %10, i1 false, i1 true, i1 false)
  %12 = call ptr @__memcpy_chk(ptr noundef %7, ptr noundef %8, i64 noundef %9, i64 noundef %11) #11
  ret ptr %12
}

; Function Attrs: nounwind sspstrong uwtable
define internal void @swap_node(ptr noundef %0, ptr noundef %1) #0 {
  %3 = alloca ptr, align 8
  %4 = alloca ptr, align 8
  %5 = alloca %struct._Node, align 8
  %6 = alloca ptr, align 8
  %7 = alloca i64, align 8
  %8 = alloca ptr, align 8
  %9 = alloca i64, align 8
  store ptr %0, ptr %3, align 8, !tbaa !66
  store ptr %1, ptr %4, align 8, !tbaa !66
  call void @llvm.lifetime.start.p0(i64 56, ptr %5) #11
  %10 = load ptr, ptr %3, align 8, !tbaa !66
  call void @llvm.memcpy.p0.p0.i64(ptr align 8 %5, ptr align 8 %10, i64 56, i1 false), !tbaa.struct !208
  %11 = load ptr, ptr %3, align 8, !tbaa !66
  %12 = load ptr, ptr %4, align 8, !tbaa !66
  call void @llvm.memcpy.p0.p0.i64(ptr align 8 %11, ptr align 8 %12, i64 56, i1 false), !tbaa.struct !208
  %13 = load ptr, ptr %4, align 8, !tbaa !66
  call void @llvm.memcpy.p0.p0.i64(ptr align 8 %13, ptr align 8 %5, i64 56, i1 false), !tbaa.struct !208
  %14 = load ptr, ptr %3, align 8, !tbaa !66
  %15 = getelementptr inbounds nuw %struct._Node, ptr %14, i32 0, i32 0
  %16 = getelementptr inbounds nuw %struct.NodeBase, ptr %15, i32 0, i32 0
  %17 = load i32, ptr %16, align 8, !tbaa !38
  %18 = icmp eq i32 %17, 0
  br i1 %18, label %19, label %49

19:                                               ; preds = %2
  call void @llvm.lifetime.start.p0(i64 8, ptr %6) #11
  %20 = load ptr, ptr %3, align 8, !tbaa !66
  %21 = getelementptr inbounds nuw %struct._Node, ptr %20, i32 0, i32 0
  store ptr %21, ptr %6, align 8, !tbaa !36
  %22 = load ptr, ptr %6, align 8, !tbaa !36
  %23 = getelementptr inbounds nuw %struct.StrNode, ptr %22, i32 0, i32 4
  %24 = load i32, ptr %23, align 4, !tbaa !209
  %25 = icmp eq i32 %24, 0
  br i1 %25, label %26, label %48

26:                                               ; preds = %19
  call void @llvm.lifetime.start.p0(i64 8, ptr %7) #11
  %27 = load ptr, ptr %6, align 8, !tbaa !36
  %28 = getelementptr inbounds nuw %struct.StrNode, ptr %27, i32 0, i32 2
  %29 = load ptr, ptr %28, align 8, !tbaa !130
  %30 = load ptr, ptr %6, align 8, !tbaa !36
  %31 = getelementptr inbounds nuw %struct.StrNode, ptr %30, i32 0, i32 1
  %32 = load ptr, ptr %31, align 8, !tbaa !128
  %33 = ptrtoint ptr %29 to i64
  %34 = ptrtoint ptr %32 to i64
  %35 = sub i64 %33, %34
  store i64 %35, ptr %7, align 8, !tbaa !14
  %36 = load ptr, ptr %6, align 8, !tbaa !36
  %37 = getelementptr inbounds nuw %struct.StrNode, ptr %36, i32 0, i32 5
  %38 = getelementptr inbounds [24 x i8], ptr %37, i64 0, i64 0
  %39 = load ptr, ptr %6, align 8, !tbaa !36
  %40 = getelementptr inbounds nuw %struct.StrNode, ptr %39, i32 0, i32 1
  store ptr %38, ptr %40, align 8, !tbaa !128
  %41 = load ptr, ptr %6, align 8, !tbaa !36
  %42 = getelementptr inbounds nuw %struct.StrNode, ptr %41, i32 0, i32 1
  %43 = load ptr, ptr %42, align 8, !tbaa !128
  %44 = load i64, ptr %7, align 8, !tbaa !14
  %45 = getelementptr i8, ptr %43, i64 %44
  %46 = load ptr, ptr %6, align 8, !tbaa !36
  %47 = getelementptr inbounds nuw %struct.StrNode, ptr %46, i32 0, i32 2
  store ptr %45, ptr %47, align 8, !tbaa !130
  call void @llvm.lifetime.end.p0(i64 8, ptr %7) #11
  br label %48

48:                                               ; preds = %26, %19
  call void @llvm.lifetime.end.p0(i64 8, ptr %6) #11
  br label %49

49:                                               ; preds = %48, %2
  %50 = load ptr, ptr %4, align 8, !tbaa !66
  %51 = getelementptr inbounds nuw %struct._Node, ptr %50, i32 0, i32 0
  %52 = getelementptr inbounds nuw %struct.NodeBase, ptr %51, i32 0, i32 0
  %53 = load i32, ptr %52, align 8, !tbaa !38
  %54 = icmp eq i32 %53, 0
  br i1 %54, label %55, label %85

55:                                               ; preds = %49
  call void @llvm.lifetime.start.p0(i64 8, ptr %8) #11
  %56 = load ptr, ptr %4, align 8, !tbaa !66
  %57 = getelementptr inbounds nuw %struct._Node, ptr %56, i32 0, i32 0
  store ptr %57, ptr %8, align 8, !tbaa !36
  %58 = load ptr, ptr %8, align 8, !tbaa !36
  %59 = getelementptr inbounds nuw %struct.StrNode, ptr %58, i32 0, i32 4
  %60 = load i32, ptr %59, align 4, !tbaa !209
  %61 = icmp eq i32 %60, 0
  br i1 %61, label %62, label %84

62:                                               ; preds = %55
  call void @llvm.lifetime.start.p0(i64 8, ptr %9) #11
  %63 = load ptr, ptr %8, align 8, !tbaa !36
  %64 = getelementptr inbounds nuw %struct.StrNode, ptr %63, i32 0, i32 2
  %65 = load ptr, ptr %64, align 8, !tbaa !130
  %66 = load ptr, ptr %8, align 8, !tbaa !36
  %67 = getelementptr inbounds nuw %struct.StrNode, ptr %66, i32 0, i32 1
  %68 = load ptr, ptr %67, align 8, !tbaa !128
  %69 = ptrtoint ptr %65 to i64
  %70 = ptrtoint ptr %68 to i64
  %71 = sub i64 %69, %70
  store i64 %71, ptr %9, align 8, !tbaa !14
  %72 = load ptr, ptr %8, align 8, !tbaa !36
  %73 = getelementptr inbounds nuw %struct.StrNode, ptr %72, i32 0, i32 5
  %74 = getelementptr inbounds [24 x i8], ptr %73, i64 0, i64 0
  %75 = load ptr, ptr %8, align 8, !tbaa !36
  %76 = getelementptr inbounds nuw %struct.StrNode, ptr %75, i32 0, i32 1
  store ptr %74, ptr %76, align 8, !tbaa !128
  %77 = load ptr, ptr %8, align 8, !tbaa !36
  %78 = getelementptr inbounds nuw %struct.StrNode, ptr %77, i32 0, i32 1
  %79 = load ptr, ptr %78, align 8, !tbaa !128
  %80 = load i64, ptr %9, align 8, !tbaa !14
  %81 = getelementptr i8, ptr %79, i64 %80
  %82 = load ptr, ptr %8, align 8, !tbaa !36
  %83 = getelementptr inbounds nuw %struct.StrNode, ptr %82, i32 0, i32 2
  store ptr %81, ptr %83, align 8, !tbaa !130
  call void @llvm.lifetime.end.p0(i64 8, ptr %9) #11
  br label %84

84:                                               ; preds = %62, %55
  call void @llvm.lifetime.end.p0(i64 8, ptr %8) #11
  br label %85

85:                                               ; preds = %84, %49
  call void @llvm.lifetime.end.p0(i64 56, ptr %5) #11
  ret void
}

; Function Attrs: nounwind sspstrong uwtable
define internal i32 @divide_look_behind_alternatives(ptr noundef %0) #0 {
  %2 = alloca i32, align 4
  %3 = alloca ptr, align 8
  %4 = alloca ptr, align 8
  %5 = alloca ptr, align 8
  %6 = alloca ptr, align 8
  %7 = alloca ptr, align 8
  %8 = alloca i32, align 4
  %9 = alloca i32, align 4
  %10 = alloca i32, align 4
  store ptr %0, ptr %3, align 8, !tbaa !66
  call void @llvm.lifetime.start.p0(i64 8, ptr %4) #11
  call void @llvm.lifetime.start.p0(i64 8, ptr %5) #11
  call void @llvm.lifetime.start.p0(i64 8, ptr %6) #11
  call void @llvm.lifetime.start.p0(i64 8, ptr %7) #11
  %11 = load ptr, ptr %3, align 8, !tbaa !66
  %12 = getelementptr inbounds nuw %struct._Node, ptr %11, i32 0, i32 0
  store ptr %12, ptr %7, align 8, !tbaa !36
  call void @llvm.lifetime.start.p0(i64 4, ptr %8) #11
  %13 = load ptr, ptr %7, align 8, !tbaa !36
  %14 = getelementptr inbounds nuw %struct.AnchorNode, ptr %13, i32 0, i32 1
  %15 = load i32, ptr %14, align 4, !tbaa !106
  store i32 %15, ptr %8, align 4, !tbaa !7
  %16 = load ptr, ptr %7, align 8, !tbaa !36
  %17 = getelementptr inbounds nuw %struct.AnchorNode, ptr %16, i32 0, i32 2
  %18 = load ptr, ptr %17, align 8, !tbaa !108
  store ptr %18, ptr %4, align 8, !tbaa !66
  %19 = load ptr, ptr %4, align 8, !tbaa !66
  %20 = getelementptr inbounds nuw %struct._Node, ptr %19, i32 0, i32 0
  %21 = getelementptr inbounds nuw %struct.ConsAltNode, ptr %20, i32 0, i32 1
  %22 = load ptr, ptr %21, align 8, !tbaa !38
  store ptr %22, ptr %5, align 8, !tbaa !66
  %23 = load ptr, ptr %3, align 8, !tbaa !66
  %24 = load ptr, ptr %4, align 8, !tbaa !66
  call void @swap_node(ptr noundef %23, ptr noundef %24)
  %25 = load ptr, ptr %4, align 8, !tbaa !66
  %26 = load ptr, ptr %3, align 8, !tbaa !66
  %27 = getelementptr inbounds nuw %struct._Node, ptr %26, i32 0, i32 0
  %28 = getelementptr inbounds nuw %struct.ConsAltNode, ptr %27, i32 0, i32 1
  store ptr %25, ptr %28, align 8, !tbaa !38
  %29 = load ptr, ptr %5, align 8, !tbaa !66
  %30 = load ptr, ptr %4, align 8, !tbaa !66
  %31 = getelementptr inbounds nuw %struct._Node, ptr %30, i32 0, i32 0
  %32 = getelementptr inbounds nuw %struct.AnchorNode, ptr %31, i32 0, i32 2
  store ptr %29, ptr %32, align 8, !tbaa !38
  %33 = load ptr, ptr %3, align 8, !tbaa !66
  store ptr %33, ptr %5, align 8, !tbaa !66
  br label %34

34:                                               ; preds = %46, %1
  %35 = load ptr, ptr %5, align 8, !tbaa !66
  %36 = getelementptr inbounds nuw %struct._Node, ptr %35, i32 0, i32 0
  %37 = getelementptr inbounds nuw %struct.ConsAltNode, ptr %36, i32 0, i32 2
  %38 = load ptr, ptr %37, align 8, !tbaa !38
  store ptr %38, ptr %5, align 8, !tbaa !66
  %39 = icmp ne ptr %38, null
  br i1 %39, label %40, label %58

40:                                               ; preds = %34
  %41 = load i32, ptr %8, align 4, !tbaa !7
  %42 = call ptr @onig_node_new_anchor(i32 noundef %41)
  store ptr %42, ptr %6, align 8, !tbaa !66
  %43 = load ptr, ptr %6, align 8, !tbaa !66
  %44 = icmp eq ptr %43, null
  br i1 %44, label %45, label %46

45:                                               ; preds = %40
  store i32 -5, ptr %2, align 4
  store i32 1, ptr %9, align 4
  br label %79

46:                                               ; preds = %40
  %47 = load ptr, ptr %5, align 8, !tbaa !66
  %48 = getelementptr inbounds nuw %struct._Node, ptr %47, i32 0, i32 0
  %49 = getelementptr inbounds nuw %struct.ConsAltNode, ptr %48, i32 0, i32 1
  %50 = load ptr, ptr %49, align 8, !tbaa !38
  %51 = load ptr, ptr %6, align 8, !tbaa !66
  %52 = getelementptr inbounds nuw %struct._Node, ptr %51, i32 0, i32 0
  %53 = getelementptr inbounds nuw %struct.AnchorNode, ptr %52, i32 0, i32 2
  store ptr %50, ptr %53, align 8, !tbaa !38
  %54 = load ptr, ptr %6, align 8, !tbaa !66
  %55 = load ptr, ptr %5, align 8, !tbaa !66
  %56 = getelementptr inbounds nuw %struct._Node, ptr %55, i32 0, i32 0
  %57 = getelementptr inbounds nuw %struct.ConsAltNode, ptr %56, i32 0, i32 1
  store ptr %54, ptr %57, align 8, !tbaa !38
  br label %34, !llvm.loop !229

58:                                               ; preds = %34
  %59 = load i32, ptr %8, align 4, !tbaa !7
  %60 = icmp eq i32 %59, 8192
  br i1 %60, label %61, label %78

61:                                               ; preds = %58
  %62 = load ptr, ptr %3, align 8, !tbaa !66
  store ptr %62, ptr %5, align 8, !tbaa !66
  br label %63

63:                                               ; preds = %71, %61
  br label %64

64:                                               ; preds = %63
  call void @llvm.lifetime.start.p0(i64 4, ptr %10) #11
  store i32 8, ptr %10, align 4, !tbaa !7
  %65 = load ptr, ptr %5, align 8, !tbaa !66
  %66 = getelementptr inbounds nuw %struct._Node, ptr %65, i32 0, i32 0
  %67 = getelementptr inbounds nuw %struct.NodeBase, ptr %66, i32 0, i32 0
  %68 = call ptr @memcpy.inline(ptr noundef %67, ptr noundef %10, i64 noundef 4) #11
  call void @llvm.lifetime.end.p0(i64 4, ptr %10) #11
  br label %69

69:                                               ; preds = %64
  br label %70

70:                                               ; preds = %69
  br label %71

71:                                               ; preds = %70
  %72 = load ptr, ptr %5, align 8, !tbaa !66
  %73 = getelementptr inbounds nuw %struct._Node, ptr %72, i32 0, i32 0
  %74 = getelementptr inbounds nuw %struct.ConsAltNode, ptr %73, i32 0, i32 2
  %75 = load ptr, ptr %74, align 8, !tbaa !38
  store ptr %75, ptr %5, align 8, !tbaa !66
  %76 = icmp ne ptr %75, null
  br i1 %76, label %63, label %77, !llvm.loop !230

77:                                               ; preds = %71
  br label %78

78:                                               ; preds = %77, %58
  store i32 0, ptr %2, align 4
  store i32 1, ptr %9, align 4
  br label %79

79:                                               ; preds = %78, %45
  call void @llvm.lifetime.end.p0(i64 4, ptr %8) #11
  call void @llvm.lifetime.end.p0(i64 8, ptr %7) #11
  call void @llvm.lifetime.end.p0(i64 8, ptr %6) #11
  call void @llvm.lifetime.end.p0(i64 8, ptr %5) #11
  call void @llvm.lifetime.end.p0(i64 8, ptr %4) #11
  %80 = load i32, ptr %2, align 4
  ret i32 %80
}

; Function Attrs: nounwind sspstrong uwtable
define internal i32 @get_char_length_tree(ptr noundef %0, ptr noundef %1, ptr noundef %2) #0 {
  %4 = alloca ptr, align 8
  %5 = alloca ptr, align 8
  %6 = alloca ptr, align 8
  store ptr %0, ptr %4, align 8, !tbaa !66
  store ptr %1, ptr %5, align 8, !tbaa !21
  store ptr %2, ptr %6, align 8, !tbaa !39
  %7 = load ptr, ptr %4, align 8, !tbaa !66
  %8 = load ptr, ptr %5, align 8, !tbaa !21
  %9 = load ptr, ptr %6, align 8, !tbaa !39
  %10 = call i32 @get_char_length_tree1(ptr noundef %7, ptr noundef %8, ptr noundef %9, i32 noundef 0)
  ret i32 %10
}

; Function Attrs: nounwind sspstrong uwtable
define internal i32 @setup_look_behind(ptr noundef %0, ptr noundef %1, ptr noundef %2) #0 {
  %4 = alloca ptr, align 8
  %5 = alloca ptr, align 8
  %6 = alloca ptr, align 8
  %7 = alloca i32, align 4
  %8 = alloca i32, align 4
  %9 = alloca ptr, align 8
  store ptr %0, ptr %4, align 8, !tbaa !66
  store ptr %1, ptr %5, align 8, !tbaa !21
  store ptr %2, ptr %6, align 8, !tbaa !36
  call void @llvm.lifetime.start.p0(i64 4, ptr %7) #11
  call void @llvm.lifetime.start.p0(i64 4, ptr %8) #11
  call void @llvm.lifetime.start.p0(i64 8, ptr %9) #11
  %10 = load ptr, ptr %4, align 8, !tbaa !66
  %11 = getelementptr inbounds nuw %struct._Node, ptr %10, i32 0, i32 0
  store ptr %11, ptr %9, align 8, !tbaa !36
  %12 = load ptr, ptr %9, align 8, !tbaa !36
  %13 = getelementptr inbounds nuw %struct.AnchorNode, ptr %12, i32 0, i32 2
  %14 = load ptr, ptr %13, align 8, !tbaa !108
  %15 = load ptr, ptr %5, align 8, !tbaa !21
  %16 = call i32 @get_char_length_tree(ptr noundef %14, ptr noundef %15, ptr noundef %8)
  store i32 %16, ptr %7, align 4, !tbaa !7
  %17 = load i32, ptr %7, align 4, !tbaa !7
  %18 = icmp eq i32 %17, 0
  br i1 %18, label %19, label %23

19:                                               ; preds = %3
  %20 = load i32, ptr %8, align 4, !tbaa !7
  %21 = load ptr, ptr %9, align 8, !tbaa !36
  %22 = getelementptr inbounds nuw %struct.AnchorNode, ptr %21, i32 0, i32 3
  store i32 %20, ptr %22, align 8, !tbaa !211
  br label %45

23:                                               ; preds = %3
  %24 = load i32, ptr %7, align 4, !tbaa !7
  %25 = icmp eq i32 %24, -1
  br i1 %25, label %26, label %27

26:                                               ; preds = %23
  store i32 -122, ptr %7, align 4, !tbaa !7
  br label %44

27:                                               ; preds = %23
  %28 = load i32, ptr %7, align 4, !tbaa !7
  %29 = icmp eq i32 %28, -2
  br i1 %29, label %30, label %43

30:                                               ; preds = %27
  %31 = load ptr, ptr %6, align 8, !tbaa !36
  %32 = getelementptr inbounds nuw %struct.ScanEnv, ptr %31, i32 0, i32 3
  %33 = load ptr, ptr %32, align 8, !tbaa !60
  %34 = getelementptr inbounds nuw %struct.OnigSyntaxType, ptr %33, i32 0, i32 2
  %35 = load i32, ptr %34, align 4, !tbaa !61
  %36 = and i32 %35, 64
  %37 = icmp ne i32 %36, 0
  br i1 %37, label %38, label %41

38:                                               ; preds = %30
  %39 = load ptr, ptr %4, align 8, !tbaa !66
  %40 = call i32 @divide_look_behind_alternatives(ptr noundef %39)
  store i32 %40, ptr %7, align 4, !tbaa !7
  br label %42

41:                                               ; preds = %30
  store i32 -122, ptr %7, align 4, !tbaa !7
  br label %42

42:                                               ; preds = %41, %38
  br label %43

43:                                               ; preds = %42, %27
  br label %44

44:                                               ; preds = %43, %26
  br label %45

45:                                               ; preds = %44, %19
  %46 = load i32, ptr %7, align 4, !tbaa !7
  call void @llvm.lifetime.end.p0(i64 8, ptr %9) #11
  call void @llvm.lifetime.end.p0(i64 4, ptr %8) #11
  call void @llvm.lifetime.end.p0(i64 4, ptr %7) #11
  ret i32 %46
}