; Function Attrs: nounwind sspstrong uwtable
define internal fastcc range(i32 -122, 1) i32 @setup_look_behind(ptr noundef %0, ptr noundef %1, ptr noundef nonnull readonly captures(none) %2) unnamed_addr #4 {
  %.sroa.0.i.i = alloca %struct.StrNode, align 8
  %4 = alloca i32, align 4
  call void @llvm.lifetime.start.p0(i64 4, ptr nonnull %4) #20
  %5 = getelementptr inbounds nuw i8, ptr %0, i64 8
  %6 = load ptr, ptr %5, align 8, !tbaa !141
  %7 = call fastcc range(i32 -2, 1) i32 @get_char_length_tree1(ptr noundef %6, ptr noundef %1, ptr noundef nonnull %4, i32 noundef 0)
  switch i32 %7, label %default.unreachable12 [
    i32 0, label %8
    i32 -1, label %divide_look_behind_alternatives.exit
    i32 -2, label %11
  ]

8:                                                ; preds = %3
  %9 = load i32, ptr %4, align 4, !tbaa !7
  %10 = getelementptr inbounds nuw i8, ptr %0, i64 16
  store i32 %9, ptr %10, align 8, !tbaa !211
  br label %divide_look_behind_alternatives.exit

11:                                               ; preds = %3
  %12 = getelementptr inbounds nuw i8, ptr %2, i64 16
  %13 = load ptr, ptr %12, align 8, !tbaa !53
  %14 = getelementptr inbounds nuw i8, ptr %13, i64 8
  %15 = load i32, ptr %14, align 4, !tbaa !54
  %16 = and i32 %15, 64
  %.not = icmp eq i32 %16, 0
  br i1 %.not, label %divide_look_behind_alternatives.exit, label %17

17:                                               ; preds = %11
  %18 = getelementptr inbounds nuw i8, ptr %0, i64 4
  %19 = load i32, ptr %18, align 4, !tbaa !138
  %20 = load ptr, ptr %5, align 8, !tbaa !141
  %21 = getelementptr inbounds nuw i8, ptr %20, i64 8
  %22 = load ptr, ptr %21, align 8, !tbaa !34
  call void @llvm.lifetime.start.p0(i64 56, ptr nonnull %.sroa.0.i.i)
  call void @llvm.memcpy.p0.p0.i64(ptr noundef nonnull align 8 dereferenceable(56) %.sroa.0.i.i, ptr noundef nonnull align 8 dereferenceable(56) %0, i64 56, i1 false), !tbaa.struct !170
  call void @llvm.memcpy.p0.p0.i64(ptr noundef nonnull align 8 dereferenceable(56) %0, ptr noundef nonnull align 8 dereferenceable(56) %20, i64 56, i1 false), !tbaa.struct !170
  call void @llvm.memcpy.p0.p0.i64(ptr noundef nonnull align 8 dereferenceable(56) %20, ptr noundef nonnull align 8 dereferenceable(56) %.sroa.0.i.i, i64 56, i1 false), !tbaa.struct !170
  %23 = load i32, ptr %0, align 8, !tbaa !34
  %24 = icmp eq i32 %23, 0
  br i1 %24, label %25, label %38

25:                                               ; preds = %17
  %26 = getelementptr inbounds nuw i8, ptr %0, i64 28
  %27 = load i32, ptr %26, align 4, !tbaa !171
  %28 = icmp eq i32 %27, 0
  br i1 %28, label %29, label %38

29:                                               ; preds = %25
  %30 = getelementptr inbounds nuw i8, ptr %0, i64 16
  %31 = load ptr, ptr %30, align 8, !tbaa !157
  %32 = load ptr, ptr %5, align 8, !tbaa !155
  %33 = ptrtoint ptr %31 to i64
  %34 = ptrtoint ptr %32 to i64
  %35 = sub i64 %33, %34
  %36 = getelementptr inbounds nuw i8, ptr %0, i64 32
  store ptr %36, ptr %5, align 8, !tbaa !155
  %37 = getelementptr i8, ptr %36, i64 %35
  store ptr %37, ptr %30, align 8, !tbaa !157
  br label %38

38:                                               ; preds = %29, %25, %17
  %39 = load i32, ptr %20, align 8, !tbaa !34
  %40 = icmp eq i32 %39, 0
  br i1 %40, label %41, label %swap_node.exit.i

41:                                               ; preds = %38
  %42 = getelementptr inbounds nuw i8, ptr %20, i64 28
  %43 = load i32, ptr %42, align 4, !tbaa !171
  %44 = icmp eq i32 %43, 0
  br i1 %44, label %45, label %swap_node.exit.i

45:                                               ; preds = %41
  %46 = getelementptr inbounds nuw i8, ptr %20, i64 16
  %47 = load ptr, ptr %46, align 8, !tbaa !157
  %48 = load ptr, ptr %21, align 8, !tbaa !155
  %49 = ptrtoint ptr %47 to i64
  %50 = ptrtoint ptr %48 to i64
  %51 = sub i64 %49, %50
  %52 = getelementptr inbounds nuw i8, ptr %20, i64 32
  %53 = getelementptr i8, ptr %52, i64 %51
  store ptr %53, ptr %46, align 8, !tbaa !157
  br label %swap_node.exit.i

swap_node.exit.i:                                 ; preds = %45, %41, %38
  call void @llvm.lifetime.end.p0(i64 56, ptr nonnull %.sroa.0.i.i)
  store ptr %20, ptr %5, align 8, !tbaa !34
  store ptr %22, ptr %21, align 8, !tbaa !34
  %54 = getelementptr inbounds nuw i8, ptr %0, i64 16
  %55 = load ptr, ptr %54, align 8, !tbaa !34
  %.not27.i = icmp eq ptr %55, null
  br i1 %.not27.i, label %._crit_edge.i, label %.lr.ph.i

.lr.ph.i:                                         ; preds = %swap_node.exit.i, %59
  %56 = phi ptr [ %64, %59 ], [ %55, %swap_node.exit.i ]
  %57 = call ptr @onig_node_new_anchor(i32 noundef %19) #20
  %58 = icmp eq ptr %57, null
  br i1 %58, label %divide_look_behind_alternatives.exit, label %59

59:                                               ; preds = %.lr.ph.i
  %60 = getelementptr inbounds nuw i8, ptr %56, i64 8
  %61 = load ptr, ptr %60, align 8, !tbaa !34
  %62 = getelementptr inbounds nuw i8, ptr %57, i64 8
  store ptr %61, ptr %62, align 8, !tbaa !34
  store ptr %57, ptr %60, align 8, !tbaa !34
  %63 = getelementptr inbounds nuw i8, ptr %56, i64 16
  %64 = load ptr, ptr %63, align 8, !tbaa !34
  %.not.i = icmp eq ptr %64, null
  br i1 %.not.i, label %._crit_edge.i, label %.lr.ph.i, !llvm.loop !237

._crit_edge.i:                                    ; preds = %59, %swap_node.exit.i
  %65 = icmp eq i32 %19, 8192
  br i1 %65, label %.preheader.i, label %divide_look_behind_alternatives.exit

.preheader.i:                                     ; preds = %._crit_edge.i, %.preheader.i
  %.1.i = phi ptr [ %67, %.preheader.i ], [ %0, %._crit_edge.i ]
  store i32 8, ptr %.1.i, align 1
  %66 = getelementptr inbounds nuw i8, ptr %.1.i, i64 16
  %67 = load ptr, ptr %66, align 8, !tbaa !34
  %.not25.i = icmp eq ptr %67, null
  br i1 %.not25.i, label %divide_look_behind_alternatives.exit, label %.preheader.i, !llvm.loop !238

default.unreachable12:                            ; preds = %3
  unreachable

divide_look_behind_alternatives.exit:             ; preds = %.lr.ph.i, %.preheader.i, %._crit_edge.i, %11, %3, %8
  %.0 = phi i32 [ 0, %8 ], [ -122, %3 ], [ -122, %11 ], [ 0, %._crit_edge.i ], [ 0, %.preheader.i ], [ -5, %.lr.ph.i ]
  call void @llvm.lifetime.end.p0(i64 4, ptr nonnull %4) #20
  ret i32 %.0
}